; Function Attrs: nounwind uwtable
define zeroext i1 @_php_stream_eof(ptr noundef %0) local_unnamed_addr #2 {
  %2 = getelementptr inbounds i8, ptr %0, i64 184
  %3 = load i64, ptr %2, align 8
  %4 = getelementptr inbounds i8, ptr %0, i64 176
  %5 = load i64, ptr %4, align 8
  %6 = icmp sgt i64 %3, %5
  br i1 %6, label %22, label %7

7:                                                ; preds = %1
  %8 = getelementptr inbounds i8, ptr %0, i64 96
  %9 = load i16, ptr %8, align 8
  %10 = and i16 %9, 8
  %.not = icmp eq i16 %10, 0
  br i1 %.not, label %11, label %_php_stream_set_option.exit.thread

11:                                               ; preds = %7
  %12 = load ptr, ptr %0, align 8
  %13 = getelementptr inbounds i8, ptr %12, i64 64
  %14 = load ptr, ptr %13, align 8
  %.not.i = icmp eq ptr %14, null
  br i1 %.not.i, label %_php_stream_set_option.exit.thread, label %15

15:                                               ; preds = %11
  %16 = tail call i32 %14(ptr noundef nonnull %0, i32 noundef 12, i32 noundef 0, ptr noundef null) #27
  %cond = icmp eq i32 %16, -1
  %.pre = load i16, ptr %8, align 8
  br i1 %cond, label %17, label %_php_stream_set_option.exit.thread

17:                                               ; preds = %15
  %18 = or i16 %.pre, 8
  store i16 %18, ptr %8, align 8
  br label %_php_stream_set_option.exit.thread

_php_stream_set_option.exit.thread:               ; preds = %15, %11, %17, %7
  %19 = phi i16 [ %.pre, %15 ], [ %9, %11 ], [ %18, %17 ], [ %9, %7 ]
  %20 = and i16 %19, 8
  %21 = icmp ne i16 %20, 0
  br label %22

22:                                               ; preds = %1, %_php_stream_set_option.exit.thread
  %.0 = phi i1 [ %21, %_php_stream_set_option.exit.thread ], [ false, %1 ]
  ret i1 %.0
}